target datalayout = "e-m:e-p270:32:32-p271:32:32-p272:64:64-i64:64-i128:128-f80:128-n8:16:32:64-S128"
target triple = "x86_64-pc-linux-gnu"

; Function Attrs: nounwind uwtable
define internal void @jpeg_undifference1(ptr noundef %0, i32 noundef %1, ptr noundef %2, ptr noundef %3, ptr noundef %4, i32 noundef %5) #0 {
  %7 = alloca ptr, align 8
  %8 = alloca i32, align 4
  %9 = alloca ptr, align 8
  %10 = alloca ptr, align 8
  %11 = alloca ptr, align 8
  %12 = alloca i32, align 4
  %13 = alloca i32, align 4
  store ptr %0, ptr %7, align 8, !tbaa !3
  store i32 %1, ptr %8, align 4, !tbaa !50
  store ptr %2, ptr %9, align 8, !tbaa !55
  store ptr %3, ptr %10, align 8, !tbaa !55
  store ptr %4, ptr %11, align 8, !tbaa !55
  store i32 %5, ptr %12, align 4, !tbaa !50
  call void @llvm.lifetime.start.p0(i64 4, ptr %13) #2
  %14 = load ptr, ptr %9, align 8, !tbaa !55
  %15 = getelementptr inbounds nuw i32, ptr %14, i32 1
  store ptr %15, ptr %9, align 8, !tbaa !55
  %16 = load i32, ptr %14, align 4, !tbaa !50
  %17 = load ptr, ptr %10, align 8, !tbaa !55
  %18 = getelementptr inbounds i32, ptr %17, i64 0
  %19 = load i32, ptr %18, align 4, !tbaa !50
  %20 = add nsw i32 %16, %19
  %21 = and i32 %20, 65535
  store i32 %21, ptr %13, align 4, !tbaa !50
  %22 = load i32, ptr %13, align 4, !tbaa !50
  %23 = load ptr, ptr %11, align 8, !tbaa !55
  %24 = getelementptr inbounds nuw i32, ptr %23, i32 1
  store ptr %24, ptr %11, align 8, !tbaa !55
  store i32 %22, ptr %23, align 4, !tbaa !50
  br label %25

25:                                               ; preds = %29, %6
  %26 = load i32, ptr %12, align 4, !tbaa !50
  %27 = add i32 %26, -1
  store i32 %27, ptr %12, align 4, !tbaa !50
  %28 = icmp ne i32 %27, 0
  br i1 %28, label %29, label %39

29:                                               ; preds = %25
  %30 = load ptr, ptr %9, align 8, !tbaa !55
  %31 = getelementptr inbounds nuw i32, ptr %30, i32 1
  store ptr %31, ptr %9, align 8, !tbaa !55
  %32 = load i32, ptr %30, align 4, !tbaa !50
  %33 = load i32, ptr %13, align 4, !tbaa !50
  %34 = add nsw i32 %32, %33
  %35 = and i32 %34, 65535
  store i32 %35, ptr %13, align 4, !tbaa !50
  %36 = load i32, ptr %13, align 4, !tbaa !50
  %37 = load ptr, ptr %11, align 8, !tbaa !55
  %38 = getelementptr inbounds nuw i32, ptr %37, i32 1
  store ptr %38, ptr %11, align 8, !tbaa !55
  store i32 %36, ptr %37, align 4, !tbaa !50
  br label %25, !llvm.loop !60

39:                                               ; preds = %25
  call void @llvm.lifetime.end.p0(i64 4, ptr %13) #2
  ret void
}