; Function Attrs: nofree norecurse nosync nounwind memory(argmem: readwrite) uwtable
define internal void @jpeg_undifference1(ptr readnone captures(none) %0, i32 %1, ptr noundef readonly captures(none) %2, ptr noundef readonly captures(none) %3, ptr noundef writeonly captures(none) initializes((0, 4)) %4, i32 noundef %5) #2 {
  %7 = load i32, ptr %2, align 4, !tbaa !52
  %8 = load i32, ptr %3, align 4, !tbaa !52
  %9 = add nsw i32 %8, %7
  %10 = and i32 %9, 65535
  store i32 %10, ptr %4, align 4, !tbaa !52
  %11 = add i32 %5, -1
  %.not13 = icmp eq i32 %11, 0
  br i1 %.not13, label %._crit_edge, label %.lr.ph

.lr.ph:                                           ; preds = %6, %.lr.ph
  %12 = phi i32 [ %16, %.lr.ph ], [ %11, %6 ]
  %.016 = phi i32 [ %15, %.lr.ph ], [ %10, %6 ]
  %.pn1215 = phi ptr [ %.09, %.lr.ph ], [ %4, %6 ]
  %.pn14 = phi ptr [ %.010, %.lr.ph ], [ %2, %6 ]
  %.09 = getelementptr inbounds nuw i8, ptr %.pn1215, i64 4
  %.010 = getelementptr inbounds nuw i8, ptr %.pn14, i64 4
  %13 = load i32, ptr %.010, align 4, !tbaa !52
  %14 = add nsw i32 %13, %.016
  %15 = and i32 %14, 65535
  store i32 %15, ptr %.09, align 4, !tbaa !52
  %16 = add i32 %12, -1
  %.not = icmp eq i32 %16, 0
  br i1 %.not, label %._crit_edge, label %.lr.ph, !llvm.loop !56

._crit_edge:                                      ; preds = %.lr.ph, %6
  ret void
}